; Function Attrs: mustprogress nounwind uwtable
define void @_ZN3zmq8dealer_tD2Ev(ptr noundef nonnull align 8 dereferenceable(1929) %this) unnamed_addr #3 align 2 {
entry:
  store ptr getelementptr inbounds ({ [47 x ptr], [4 x ptr], [7 x ptr], [8 x ptr] }, ptr @_ZTVN3zmq8dealer_tE, i64 0, i32 0, i64 2), ptr %this, align 8
  %add.ptr = getelementptr inbounds i8, ptr %this, i64 1448
  store ptr getelementptr inbounds ({ [47 x ptr], [4 x ptr], [7 x ptr], [8 x ptr] }, ptr @_ZTVN3zmq8dealer_tE, i64 0, i32 1, i64 2), ptr %add.ptr, align 8
  %add.ptr2 = getelementptr inbounds i8, ptr %this, i64 1464
  store ptr getelementptr inbounds ({ [47 x ptr], [4 x ptr], [7 x ptr], [8 x ptr] }, ptr @_ZTVN3zmq8dealer_tE, i64 0, i32 2, i64 2), ptr %add.ptr2, align 8
  %add.ptr3 = getelementptr inbounds i8, ptr %this, i64 1472
  store ptr getelementptr inbounds ({ [47 x ptr], [4 x ptr], [7 x ptr], [8 x ptr] }, ptr @_ZTVN3zmq8dealer_tE, i64 0, i32 3, i64 2), ptr %add.ptr3, align 8
  %_lb = getelementptr inbounds i8, ptr %this, i64 1880
  tail call void @_ZN3zmq4lb_tD1Ev(ptr noundef nonnull align 8 dereferenceable(42) %_lb) #9
  %_fq = getelementptr inbounds i8, ptr %this, i64 1832
  tail call void @_ZN3zmq4fq_tD1Ev(ptr noundef nonnull align 8 dereferenceable(41) %_fq) #9
  tail call void @_ZN3zmq13socket_base_tD2Ev(ptr noundef nonnull align 8 dereferenceable(1825) %this) #9
  ret void
}